target datalayout = "e-m:e-p270:32:32-p271:32:32-p272:64:64-i64:64-i128:128-f80:128-n8:16:32:64-S128"
target triple = "x86_64-unknown-linux-gnu"

%struct.CPUClass = type { %struct.DeviceClass, ptr, ptr, ptr, ptr, ptr, ptr, ptr, ptr, ptr, ptr, ptr, ptr, ptr, ptr, ptr, ptr, ptr, ptr, ptr, ptr, ptr, i32, i32, i8 }
%struct.DeviceClass = type { %struct.ObjectClass, [1 x i64], ptr, ptr, ptr, i8, i8, ptr, ptr, ptr, ptr, ptr }
%struct.ObjectClass = type { ptr, ptr, [4 x ptr], [4 x ptr], ptr, ptr }
%struct.SysemuCPUOps = type { ptr, ptr, ptr, ptr, ptr, ptr, ptr, ptr, ptr, ptr, ptr, ptr }
%struct.MemTxAttrs = type { i32 }

@.str.3 = private unnamed_addr constant [4 x i8] c"cpu\00", align 1
@.str.4 = private unnamed_addr constant [100 x i8] c"/home/dtcxzyw/WorkSpace/Projects/compilers/llvm-opt-benchmark/bench/qemu/qemu/include/hw/core/cpu.h\00", align 1
@__func__.CPU_GET_CLASS = private unnamed_addr constant [14 x i8] c"CPU_GET_CLASS\00", align 1

; Function Attrs: nounwind sspstrong uwtable
define internal ptr @CPU_GET_CLASS(ptr noundef %obj) #0 {
entry:
  %obj.addr = alloca ptr, align 8
  store ptr %obj, ptr %obj.addr, align 8
  %0 = load ptr, ptr %obj.addr, align 8
  %call = call ptr @object_get_class(ptr noundef %0)
  %call1 = call ptr @object_class_dynamic_cast_assert(ptr noundef %call, ptr noundef @.str.3, ptr noundef @.str.4, i32 noundef 64, ptr noundef @__func__.CPU_GET_CLASS)
  ret ptr %call1
}

; Function Attrs: nounwind sspstrong uwtable
define dso_local i64 @cpu_get_phys_page_attrs_debug(ptr noundef %cpu, i64 noundef %addr, ptr noundef %attrs) #0 {
entry:
  %retval = alloca i64, align 8
  %cpu.addr = alloca ptr, align 8
  %addr.addr = alloca i64, align 8
  %attrs.addr = alloca ptr, align 8
  %cc = alloca ptr, align 8
  %.compoundliteral = alloca %struct.MemTxAttrs, align 4
  store ptr %cpu, ptr %cpu.addr, align 8
  store i64 %addr, ptr %addr.addr, align 8
  store ptr %attrs, ptr %attrs.addr, align 8
  %0 = load ptr, ptr %cpu.addr, align 8
  %call = call ptr @CPU_GET_CLASS(ptr noundef %0)
  store ptr %call, ptr %cc, align 8
  %1 = load ptr, ptr %cc, align 8
  %sysemu_ops = getelementptr inbounds %struct.CPUClass, ptr %1, i32 0, i32 19
  %2 = load ptr, ptr %sysemu_ops, align 8
  %get_phys_page_attrs_debug = getelementptr inbounds %struct.SysemuCPUOps, ptr %2, i32 0, i32 3
  %3 = load ptr, ptr %get_phys_page_attrs_debug, align 8
  %tobool = icmp ne ptr %3, null
  br i1 %tobool, label %if.then, label %if.end

if.then:                                          ; preds = %entry
  %4 = load ptr, ptr %cc, align 8
  %sysemu_ops1 = getelementptr inbounds %struct.CPUClass, ptr %4, i32 0, i32 19
  %5 = load ptr, ptr %sysemu_ops1, align 8
  %get_phys_page_attrs_debug2 = getelementptr inbounds %struct.SysemuCPUOps, ptr %5, i32 0, i32 3
  %6 = load ptr, ptr %get_phys_page_attrs_debug2, align 8
  %7 = load ptr, ptr %cpu.addr, align 8
  %8 = load i64, ptr %addr.addr, align 8
  %9 = load ptr, ptr %attrs.addr, align 8
  %call3 = call i64 %6(ptr noundef %7, i64 noundef %8, ptr noundef %9)
  store i64 %call3, ptr %retval, align 8
  br label %return

if.end:                                           ; preds = %entry
  %10 = load ptr, ptr %attrs.addr, align 8
  %bf.load = load i32, ptr %.compoundliteral, align 4
  %bf.clear = and i32 %bf.load, -2
  %bf.set = or i32 %bf.clear, 1
  store i32 %bf.set, ptr %.compoundliteral, align 4
  %bf.load4 = load i32, ptr %.compoundliteral, align 4
  %bf.clear5 = and i32 %bf.load4, -3
  %bf.set6 = or i32 %bf.clear5, 0
  store i32 %bf.set6, ptr %.compoundliteral, align 4
  %bf.load7 = load i32, ptr %.compoundliteral, align 4
  %bf.clear8 = and i32 %bf.load7, -13
  %bf.set9 = or i32 %bf.clear8, 0
  store i32 %bf.set9, ptr %.compoundliteral, align 4
  %bf.load10 = load i32, ptr %.compoundliteral, align 4
  %bf.clear11 = and i32 %bf.load10, -17
  %bf.set12 = or i32 %bf.clear11, 0
  store i32 %bf.set12, ptr %.compoundliteral, align 4
  %bf.load13 = load i32, ptr %.compoundliteral, align 4
  %bf.clear14 = and i32 %bf.load13, -33
  %bf.set15 = or i32 %bf.clear14, 0
  store i32 %bf.set15, ptr %.compoundliteral, align 4
  %bf.load16 = load i32, ptr %.compoundliteral, align 4
  %bf.clear17 = and i32 %bf.load16, -4194241
  %bf.set18 = or i32 %bf.clear17, 0
  store i32 %bf.set18, ptr %.compoundliteral, align 4
  %bf.load19 = load i32, ptr %.compoundliteral, align 4
  %bf.clear20 = and i32 %bf.load19, -4194305
  %bf.set21 = or i32 %bf.clear20, 0
  store i32 %bf.set21, ptr %.compoundliteral, align 4
  %bf.load22 = load i32, ptr %.compoundliteral, align 4
  %bf.clear23 = and i32 %bf.load22, -8388609
  %bf.set24 = or i32 %bf.clear23, 0
  store i32 %bf.set24, ptr %.compoundliteral, align 4
  %bf.load25 = load i32, ptr %.compoundliteral, align 4
  %bf.clear26 = and i32 %bf.load25, -16777217
  %bf.set27 = or i32 %bf.clear26, 0
  store i32 %bf.set27, ptr %.compoundliteral, align 4
  %bf.load28 = load i32, ptr %.compoundliteral, align 4
  %bf.clear29 = and i32 %bf.load28, -33554433
  %bf.set30 = or i32 %bf.clear29, 0
  store i32 %bf.set30, ptr %.compoundliteral, align 4
  call void @llvm.memcpy.p0.p0.i64(ptr align 4 %10, ptr align 4 %.compoundliteral, i64 4, i1 false)
  %11 = load ptr, ptr %cc, align 8
  %sysemu_ops31 = getelementptr inbounds %struct.CPUClass, ptr %11, i32 0, i32 19
  %12 = load ptr, ptr %sysemu_ops31, align 8
  %get_phys_page_debug = getelementptr inbounds %struct.SysemuCPUOps, ptr %12, i32 0, i32 2
  %13 = load ptr, ptr %get_phys_page_debug, align 8
  %14 = load ptr, ptr %cpu.addr, align 8
  %15 = load i64, ptr %addr.addr, align 8
  %call32 = call i64 %13(ptr noundef %14, i64 noundef %15)
  store i64 %call32, ptr %retval, align 8
  br label %return

return:                                           ; preds = %if.end, %if.then
  %16 = load i64, ptr %retval, align 8
  ret i64 %16
}

; Function Attrs: nounwind sspstrong uwtable
define dso_local i64 @cpu_get_phys_page_debug(ptr noundef %cpu, i64 noundef %addr) #0 {
entry:
  %cpu.addr = alloca ptr, align 8
  %addr.addr = alloca i64, align 8
  %attrs = alloca %struct.MemTxAttrs, align 4
  store ptr %cpu, ptr %cpu.addr, align 8
  store i64 %addr, ptr %addr.addr, align 8
  call void @llvm.memset.p0.i64(ptr align 4 %attrs, i8 0, i64 4, i1 false)
  %0 = load ptr, ptr %cpu.addr, align 8
  %1 = load i64, ptr %addr.addr, align 8
  %call = call i64 @cpu_get_phys_page_attrs_debug(ptr noundef %0, i64 noundef %1, ptr noundef %attrs)
  ret i64 %call
}