; Function Attrs: nounwind sspstrong uwtable
define dso_local i64 @cpu_get_phys_page_debug(ptr noundef %cpu, i64 noundef %addr) local_unnamed_addr #0 {
entry:
  %attrs = alloca %struct.MemTxAttrs, align 4
  store i32 0, ptr %attrs, align 4
  %call.i.i = tail call ptr @object_get_class(ptr noundef %cpu) #3
  %call1.i.i = tail call ptr @object_class_dynamic_cast_assert(ptr noundef %call.i.i, ptr noundef nonnull @.str.3, ptr noundef nonnull @.str.4, i32 noundef 64, ptr noundef nonnull @__func__.CPU_GET_CLASS) #3
  %sysemu_ops.i = getelementptr inbounds nuw i8, ptr %call1.i.i, i64 320
  %0 = load ptr, ptr %sysemu_ops.i, align 8
  %get_phys_page_attrs_debug.i = getelementptr inbounds nuw i8, ptr %0, i64 24
  %1 = load ptr, ptr %get_phys_page_attrs_debug.i, align 8
  %tobool.not.i = icmp eq ptr %1, null
  br i1 %tobool.not.i, label %if.end.i, label %if.then.i

if.then.i:                                        ; preds = %entry
  %call3.i = call i64 %1(ptr noundef %cpu, i64 noundef %addr, ptr noundef nonnull %attrs) #3
  br label %cpu_get_phys_page_attrs_debug.exit

if.end.i:                                         ; preds = %entry
  %get_phys_page_debug.i = getelementptr inbounds nuw i8, ptr %0, i64 16
  %2 = load ptr, ptr %get_phys_page_debug.i, align 8
  %call32.i = tail call i64 %2(ptr noundef %cpu, i64 noundef %addr) #3
  br label %cpu_get_phys_page_attrs_debug.exit

cpu_get_phys_page_attrs_debug.exit:               ; preds = %if.then.i, %if.end.i
  %retval.0.i = phi i64 [ %call3.i, %if.then.i ], [ %call32.i, %if.end.i ]
  ret i64 %retval.0.i
}